; Function Attrs: mustprogress uwtable
define hidden void @_ZN4cvc58internal6theory2uf24IntToBitVectorOpTypeRule11computeTypeEPNS0_11NodeManagerENS0_12NodeTemplateILb0EEEbPSo(ptr dead_on_unwind noalias writable sret(%"class.cvc5::internal::TypeNode") align 8 %0, ptr noundef %1, ptr noundef readonly captures(none) %2, i1 noundef zeroext %3, ptr noundef %4) local_unnamed_addr #3 align 2 {
  %6 = load ptr, ptr %2, align 8, !tbaa !16
  %7 = tail call noundef nonnull align 4 dereferenceable(4) ptr @_ZNK4cvc58internal4expr9NodeValue8getConstINS0_14IntToBitVectorEEERKT_v(ptr noundef nonnull align 8 dereferenceable(24) %6)
  %8 = load i32, ptr %7, align 4, !tbaa !174
  %9 = icmp eq i32 %8, 0
  br i1 %9, label %10, label %29

10:                                               ; preds = %5
  %.not = icmp eq ptr %4, null
  br i1 %.not, label %13, label %11

11:                                               ; preds = %10
  %12 = tail call noundef nonnull align 8 dereferenceable(8) ptr @_ZSt16__ostream_insertIcSt11char_traitsIcEERSt13basic_ostreamIT_T0_ES6_PKS3_l(ptr noundef nonnull align 8 dereferenceable(8) %4, ptr noundef nonnull @.str.16, i64 noundef 23)
  br label %13

13:                                               ; preds = %11, %10
  tail call void @llvm.experimental.noalias.scope.decl(metadata !176)
  %14 = load ptr, ptr @_ZN4cvc58internal8TypeNode6s_nullE, align 8, !tbaa !6, !noalias !176
  store ptr %14, ptr %0, align 8, !tbaa !6, !alias.scope !176
  %15 = load i64, ptr %14, align 8, !noalias !176
  %16 = lshr i64 %15, 40
  %17 = trunc nuw nsw i64 %16 to i32
  %18 = and i32 %17, 1048575
  %19 = icmp samesign ult i32 %18, 1048574
  br i1 %19, label %20, label %25, !prof !12

20:                                               ; preds = %13
  %21 = add i64 %15, 1099511627776
  %22 = and i64 %21, 1152920405095219200
  %23 = and i64 %15, -1152920405095219201
  %24 = or disjoint i64 %22, %23
  store i64 %24, ptr %14, align 8, !noalias !176
  br label %_ZN4cvc58internal8TypeNode4nullEv.exit

25:                                               ; preds = %13
  %26 = icmp eq i32 %18, 1048574
  br i1 %26, label %27, label %_ZN4cvc58internal8TypeNode4nullEv.exit, !prof !13

27:                                               ; preds = %25
  %28 = or i64 %15, 1152920405095219200
  store i64 %28, ptr %14, align 8, !noalias !176
  tail call void @_ZN4cvc58internal4expr9NodeValue20markRefCountMaxedOutEv(ptr noundef nonnull align 8 dereferenceable(24) %14), !noalias !176
  br label %_ZN4cvc58internal8TypeNode4nullEv.exit

29:                                               ; preds = %5
  tail call void @_ZN4cvc58internal11NodeManager19builtinOperatorTypeEv(ptr dead_on_unwind writable sret(%"class.cvc5::internal::TypeNode") align 8 %0, ptr noundef nonnull align 8 dereferenceable(3560) %1)
  br label %_ZN4cvc58internal8TypeNode4nullEv.exit

_ZN4cvc58internal8TypeNode4nullEv.exit:           ; preds = %27, %25, %20, %29
  ret void
}